target datalayout = "e-m:e-p270:32:32-p271:32:32-p272:64:64-i64:64-i128:128-f80:128-n8:16:32:64-S128"
target triple = "x86_64-pc-linux-gnu"

; Function Attrs: mustprogress uwtable
define dso_local noundef zeroext i1 @_ZN16DefaultOutputMgr8is_splitEv(ptr noundef nonnull align 8 dereferenceable(40) %0) #6 align 2 {
  %2 = alloca ptr, align 8
  store ptr %0, ptr %2, align 8, !tbaa !13
  %3 = call noundef i32 @_ZN9CGOptions15max_split_filesEv()
  %4 = icmp sgt i32 %3, 0
  ret i1 %4
}

; Function Attrs: mustprogress uwtable
define dso_local void @_ZN16DefaultOutputMgr6OutputEv(ptr noundef nonnull align 8 dereferenceable(40) %0) unnamed_addr #6 align 2 {
  %2 = alloca ptr, align 8
  %3 = alloca ptr, align 8
  store ptr %0, ptr %2, align 8, !tbaa !13
  %4 = load ptr, ptr %2, align 8
  call void @llvm.lifetime.start.p0(i64 8, ptr %3) #3
  %5 = load ptr, ptr %4, align 8, !tbaa !19
  %6 = getelementptr inbounds ptr, ptr %5, i64 8
  %7 = load ptr, ptr %6, align 8
  %8 = call noundef nonnull align 8 dereferenceable(8) ptr %7(ptr noundef nonnull align 8 dereferenceable(40) %4)
  store ptr %8, ptr %3, align 8, !tbaa !27
  %9 = call noundef zeroext i1 @_ZN16DefaultOutputMgr8is_splitEv(ptr noundef nonnull align 8 dereferenceable(40) %4)
  br i1 %9, label %10, label %11

10:                                               ; preds = %1
  call void @_ZN16DefaultOutputMgr13OutputGlobalsEv(ptr noundef nonnull align 8 dereferenceable(40) %4)
  call void @_ZN16DefaultOutputMgr16OutputAllHeadersEv(ptr noundef nonnull align 8 dereferenceable(40) %4)
  call void @_ZN16DefaultOutputMgr16RandomOutputDefsEv(ptr noundef nonnull align 8 dereferenceable(40) %4)
  br label %16

11:                                               ; preds = %1
  %12 = load ptr, ptr %3, align 8, !tbaa !27
  call void @_Z29OutputStructUnionDeclarationsRSo(ptr noundef nonnull align 8 dereferenceable(8) %12)
  %13 = load ptr, ptr %3, align 8, !tbaa !27
  call void @_Z21OutputGlobalVariablesRSo(ptr noundef nonnull align 8 dereferenceable(8) %13)
  %14 = load ptr, ptr %3, align 8, !tbaa !27
  call void @_Z25OutputForwardDeclarationsRSo(ptr noundef nonnull align 8 dereferenceable(8) %14)
  %15 = load ptr, ptr %3, align 8, !tbaa !27
  call void @_Z15OutputFunctionsRSo(ptr noundef nonnull align 8 dereferenceable(8) %15)
  br label %16

16:                                               ; preds = %11, %10
  %17 = call noundef zeroext i1 @_ZN9CGOptions17step_hash_by_stmtEv()
  br i1 %17, label %18, label %21

18:                                               ; preds = %16
  %19 = load ptr, ptr %3, align 8, !tbaa !27
  call void @_ZN9OutputMgr17OutputHashFuncDefERSo(ptr noundef nonnull align 8 dereferenceable(8) %19)
  %20 = load ptr, ptr %3, align 8, !tbaa !27
  call void @_ZN9OutputMgr21OutputStepHashFuncDefERSo(ptr noundef nonnull align 8 dereferenceable(8) %20)
  br label %21

21:                                               ; preds = %18, %16
  %22 = call noundef zeroext i1 @_ZN9CGOptions6nomainEv()
  br i1 %22, label %25, label %23

23:                                               ; preds = %21
  %24 = load ptr, ptr %3, align 8, !tbaa !27
  call void @_ZN9OutputMgr10OutputMainERSo(ptr noundef nonnull align 8 dereferenceable(8) %4, ptr noundef nonnull align 8 dereferenceable(8) %24)
  br label %25

25:                                               ; preds = %23, %21
  %26 = load ptr, ptr %3, align 8, !tbaa !27
  call void @_ZN9OutputMgr10OutputTailERSo(ptr noundef nonnull align 8 dereferenceable(8) %4, ptr noundef nonnull align 8 dereferenceable(8) %26)
  call void @llvm.lifetime.end.p0(i64 8, ptr %3) #3
  ret void
}