; Function Attrs: mustprogress uwtable
define dso_local void @_ZN16DefaultOutputMgr6OutputEv(ptr noundef nonnull align 8 dereferenceable(40) %0) unnamed_addr #5 align 2 {
  %2 = load ptr, ptr %0, align 8, !tbaa !15
  %3 = getelementptr inbounds nuw i8, ptr %2, i64 64
  %4 = load ptr, ptr %3, align 8
  %5 = tail call noundef nonnull align 8 dereferenceable(8) ptr %4(ptr noundef nonnull align 8 dereferenceable(40) %0)
  %6 = tail call noundef i32 @_ZN9CGOptions15max_split_filesEv()
  %7 = icmp sgt i32 %6, 0
  br i1 %7, label %8, label %9

8:                                                ; preds = %1
  tail call void @_ZN16DefaultOutputMgr13OutputGlobalsEv(ptr nonnull align 8 poison)
  tail call void @_ZN16DefaultOutputMgr16OutputAllHeadersEv(ptr noundef nonnull align 8 dereferenceable(40) %0)
  tail call void @_ZN16DefaultOutputMgr16RandomOutputDefsEv(ptr noundef nonnull align 8 dereferenceable(40) %0)
  br label %10

9:                                                ; preds = %1
  tail call void @_Z29OutputStructUnionDeclarationsRSo(ptr noundef nonnull align 8 dereferenceable(8) %5)
  tail call void @_Z21OutputGlobalVariablesRSo(ptr noundef nonnull align 8 dereferenceable(8) %5)
  tail call void @_Z25OutputForwardDeclarationsRSo(ptr noundef nonnull align 8 dereferenceable(8) %5)
  tail call void @_Z15OutputFunctionsRSo(ptr noundef nonnull align 8 dereferenceable(8) %5)
  br label %10

10:                                               ; preds = %9, %8
  %11 = tail call noundef zeroext i1 @_ZN9CGOptions17step_hash_by_stmtEv()
  br i1 %11, label %12, label %13

12:                                               ; preds = %10
  tail call void @_ZN9OutputMgr17OutputHashFuncDefERSo(ptr noundef nonnull align 8 dereferenceable(8) %5)
  tail call void @_ZN9OutputMgr21OutputStepHashFuncDefERSo(ptr noundef nonnull align 8 dereferenceable(8) %5)
  br label %13

13:                                               ; preds = %12, %10
  %14 = tail call noundef zeroext i1 @_ZN9CGOptions6nomainEv()
  br i1 %14, label %16, label %15

15:                                               ; preds = %13
  tail call void @_ZN9OutputMgr10OutputMainERSo(ptr noundef nonnull align 8 dereferenceable(8) %0, ptr noundef nonnull align 8 dereferenceable(8) %5)
  br label %16

16:                                               ; preds = %15, %13
  tail call void @_ZN9OutputMgr10OutputTailERSo(ptr noundef nonnull align 8 dereferenceable(8) %0, ptr noundef nonnull align 8 dereferenceable(8) %5)
  ret void
}